target datalayout = "e-m:e-p270:32:32-p271:32:32-p272:64:64-i64:64-i128:128-f80:128-n8:16:32:64-S128"
target triple = "x86_64-pc-linux-gnu"

%"class.std::__cxx11::basic_string" = type { %"struct.std::__cxx11::basic_string<char>::_Alloc_hider", i64, %union.anon }
%"struct.std::__cxx11::basic_string<char>::_Alloc_hider" = type { ptr }
%union.anon = type { i64, [8 x i8] }
%"class.std::__cxx11::basic_stringstream" = type { %"class.std::basic_iostream.base", %"class.std::__cxx11::basic_stringbuf", %"class.std::basic_ios" }
%"class.std::basic_iostream.base" = type { %"class.std::basic_istream.base", %"class.std::basic_ostream.base" }
%"class.std::basic_istream.base" = type { ptr, i64 }
%"class.std::basic_ostream.base" = type { ptr }
%"class.std::__cxx11::basic_stringbuf" = type { %"class.std::basic_streambuf", i32, %"class.std::__cxx11::basic_string" }
%"class.std::basic_streambuf" = type { ptr, ptr, ptr, ptr, ptr, ptr, ptr, %"class.std::locale" }
%"class.std::locale" = type { ptr }
%"class.std::basic_ios" = type { %"class.std::ios_base", ptr, i8, i8, ptr, ptr, ptr, ptr }
%"class.std::ios_base" = type { ptr, i64, i64, i32, i32, i32, ptr, %"struct.std::ios_base::_Words", [8 x %"struct.std::ios_base::_Words"], i32, ptr, %"class.std::locale" }
%"struct.std::ios_base::_Words" = type { ptr, i64 }
%"class.std::__shared_count" = type { ptr }
%"class.cvc5::parser::Cmd" = type { ptr, ptr }
%"class.cvc5::SynthResult" = type { %"class.std::shared_ptr.282" }
%"class.std::shared_ptr.282" = type { %"class.std::__shared_ptr.283" }
%"class.std::__shared_ptr.283" = type { ptr, %"class.std::__shared_count" }
%"class.cvc5::parser::CheckSynthCommand" = type { %"class.cvc5::parser::Cmd", i8, %"class.cvc5::SynthResult", %"class.std::__cxx11::basic_stringstream" }

; Function Attrs: mustprogress uwtable
define void @_ZNK4cvc56parser17CheckSynthCommand8toStreamERSo(ptr noundef nonnull align 8 dereferenceable(432) %0, ptr noundef nonnull align 8 dereferenceable(8) %1) unnamed_addr #4 align 2 {
  %3 = alloca ptr, align 8
  %4 = alloca ptr, align 8
  store ptr %0, ptr %3, align 8, !tbaa !166
  store ptr %1, ptr %4, align 8, !tbaa !14
  %5 = load ptr, ptr %3, align 8
  %6 = getelementptr inbounds nuw %"class.cvc5::parser::CheckSynthCommand", ptr %5, i32 0, i32 1
  %7 = load i8, ptr %6, align 8, !tbaa !168, !range !86, !noundef !87
  %8 = trunc i8 %7 to i1
  br i1 %8, label %9, label %16

9:                                                ; preds = %2
  %10 = load ptr, ptr %4, align 8, !tbaa !14
  %11 = call noundef ptr @_ZN4cvc58internal7Printer10getPrinterERSo(ptr noundef nonnull align 8 dereferenceable(8) %10)
  %12 = load ptr, ptr %4, align 8, !tbaa !14
  %13 = load ptr, ptr %11, align 8, !tbaa !12
  %14 = getelementptr inbounds ptr, ptr %13, i64 35
  %15 = load ptr, ptr %14, align 8
  call void %15(ptr noundef nonnull align 8 dereferenceable(8) %11, ptr noundef nonnull align 8 dereferenceable(8) %12)
  br label %23

16:                                               ; preds = %2
  %17 = load ptr, ptr %4, align 8, !tbaa !14
  %18 = call noundef ptr @_ZN4cvc58internal7Printer10getPrinterERSo(ptr noundef nonnull align 8 dereferenceable(8) %17)
  %19 = load ptr, ptr %4, align 8, !tbaa !14
  %20 = load ptr, ptr %18, align 8, !tbaa !12
  %21 = getelementptr inbounds ptr, ptr %20, i64 34
  %22 = load ptr, ptr %21, align 8
  call void %22(ptr noundef nonnull align 8 dereferenceable(8) %18, ptr noundef nonnull align 8 dereferenceable(8) %19)
  br label %23

23:                                               ; preds = %16, %9
  ret void
}