; Function Attrs: mustprogress uwtable
define void @_ZNK4cvc56parser17CheckSynthCommand8toStreamERSo(ptr noundef nonnull readonly align 8 captures(none) dereferenceable(432) %0, ptr noundef nonnull align 8 dereferenceable(8) %1) unnamed_addr #3 align 2 {
  %3 = getelementptr inbounds nuw i8, ptr %0, i64 16
  %4 = load i8, ptr %3, align 8, !tbaa !182, !range !161, !noundef !162
  %5 = trunc nuw i8 %4 to i1
  %6 = tail call noundef ptr @_ZN4cvc58internal7Printer10getPrinterERSo(ptr noundef nonnull align 8 dereferenceable(8) %1)
  %7 = load ptr, ptr %6, align 8, !tbaa !6
  %. = select i1 %5, i64 280, i64 272
  %8 = getelementptr inbounds nuw i8, ptr %7, i64 %.
  %9 = load ptr, ptr %8, align 8
  tail call void %9(ptr noundef nonnull align 8 dereferenceable(8) %6, ptr noundef nonnull align 8 dereferenceable(8) %1)
  ret void
}